(lp0
(dp1
S'seconds'
p2
I0
sS'loss'
p3
F0.8878417649463063
sS'counter'
p4
I1
sS'params'
p5
(dp6
S'weight_decay'
p7
F0.01914259032135905
sS'hidden_layers'
p8
I197
sS'batch_size'
p9
I64
sS'activation_dropout_nlayers'
p10
(dp11
S'activation'
p12
S'tanh'
p13
sS'n_layers'
p14
I1
sssS'iterations'
p15
F1.0
sa(dp16
g2
I0
sg3
F1.2031065353210002
sg4
I2
sg5
(dp17
g7
F0.01356937415728531
sg8
I64
sg9
I64
sg10
(dp18
g12
g13
sg14
I3
sssg15
F1.0
sa(dp19
g2
I0
sg3
F1.1860858405292873
sg4
I3
sg5
(dp20
g7
F0.000636431634734809
sg8
I87
sg9
I64
sg10
(dp21
g12
g13
sg14
I1
sssg15
F1.0
sa(dp22
g2
I0
sg3
F0.9830102350462262
sg4
I4
sg5
(dp23
g7
F0.039675561474484505
sg8
I130
sg9
I32
sg10
(dp24
g12
g13
sg14
I1
sssg15
F1.0
sa(dp25
g2
I0
sg3
F0.6995964605533052
sg4
I5
sg5
(dp26
g7
F5.398207898870726e-06
sg8
I2
sg9
I32
sg10
(dp27
g12
g13
sg14
I4
sssg15
F1.0
sa(dp28
g2
I0
sg3
F0.9553286176496399
sg4
I6
sg5
(dp29
g7
F0.00019348394857241416
sg8
I15
sg9
I64
sg10
(dp30
g12
g13
sg14
I2
sssg15
F1.0
sa(dp31
g2
I0
sg3
F1.1502171155553407
sg4
I7
sg5
(dp32
g7
F0.0074670767622153885
sg8
I158
sg9
I32
sg10
(dp33
g12
g13
sg14
I2
sssg15
F1.0
sa(dp34
g2
I0
sg3
F1.480418240689339
sg4
I8
sg5
(dp35
g7
F3.115634167448192e-06
sg8
I31
sg9
I64
sg10
(dp36
g12
g13
sg14
I3
sssg15
F1.0
sa(dp37
g2
I0
sg3
F1.7309536193978476
sg4
I9
sg5
(dp38
g7
F0.00023351334244249634
sg8
I46
sg9
I64
sg10
(dp39
g12
g13
sg14
I3
sssg15
F1.0
sa(dp40
g2
I0
sg3
F1.1592894008225945
sg4
I10
sg5
(dp41
g7
F0.005263448788229823
sg8
I34
sg9
I64
sg10
(dp42
g12
g13
sg14
I4
sssg15
F1.0
sa(dp43
g2
I0
sg3
F2.199678043738971
sg4
I11
sg5
(dp44
g7
F4.976493571581524e-05
sg8
I55
sg9
I64
sg10
(dp45
g12
g13
sg14
I3
sssg15
F1.0
sa(dp46
g2
I0
sg3
F1.7345919655421933
sg4
I12
sg5
(dp47
g7
F0.00011118650221288574
sg8
I39
sg9
I32
sg10
(dp48
g12
g13
sg14
I4
sssg15
F1.0
sa(dp49
g2
I0
sg3
F4.309106925380249
sg4
I13
sg5
(dp50
g7
F2.400636661829377e-05
sg8
I111
sg9
I32
sg10
(dp51
g12
g13
sg14
I3
sssg15
F1.0
sa(dp52
g2
I0
sg3
F1.6433718742200998
sg4
I14
sg5
(dp53
g7
F0.00966447438253032
sg8
I112
sg9
I32
sg10
(dp54
g12
g13
sg14
I4
sssg15
F1.0
sa(dp55
g2
I0
sg3
F1.2445832070657135
sg4
I15
sg5
(dp56
g7
F0.0014296728684503731
sg8
I98
sg9
I64
sg10
(dp57
g12
g13
sg14
I2
sssg15
F1.0
sa(dp58
g2
I0
sg3
F0.8783300315545274
sg4
I16
sg5
(dp59
g7
F0.006650377241827229
sg8
I118
sg9
I64
sg10
(dp60
g12
g13
sg14
I1
sssg15
F1.0
sa(dp61
g2
I0
sg3
F1.8951593717416033
sg4
I17
sg5
(dp62
g7
F1.7102142500522585e-05
sg8
I167
sg9
I32
sg10
(dp63
g12
g13
sg14
I1
sssg15
F1.0
sa(dp64
g2
I0
sg3
F1.1849316610695766
sg4
I18
sg5
(dp65
g7
F0.00410771202204219
sg8
I42
sg9
I32
sg10
(dp66
g12
g13
sg14
I4
sssg15
F1.0
sa(dp67
g2
I0
sg3
F1.3967860761729525
sg4
I19
sg5
(dp68
g7
F2.6409394208022505e-05
sg8
I47
sg9
I32
sg10
(dp69
g12
g13
sg14
I2
sssg15
F1.0
sa(dp70
g2
I0
sg3
F0.923971785728557
sg4
I20
sg5
(dp71
g7
F0.0011460567015048155
sg8
I105
sg9
I32
sg10
(dp72
g12
g13
sg14
I1
sssg15
F1.0
sa(dp73
g2
I0
sg3
F1.390067575144949
sg4
I21
sg5
(dp74
g7
F0.0004866078509975411
sg8
I168
sg9
I32
sg10
(dp75
g12
g13
sg14
I2
sssg15
F1.0
sa(dp76
g2
I0
sg3
F1.416246062030873
sg4
I22
sg5
(dp77
g7
F4.569621980207217e-05
sg8
I31
sg9
I64
sg10
(dp78
g12
g13
sg14
I3
sssg15
F1.0
sa(dp79
g2
I0
sg3
F0.8516162036612812
sg4
I23
sg5
(dp80
g7
F0.004303270523619713
sg8
I5
sg9
I64
sg10
(dp81
g12
g13
sg14
I4
sssg15
F1.0
sa(dp82
g2
I0
sg3
F3.9458666099024833
sg4
I24
sg5
(dp83
g7
F3.305359166427355e-05
sg8
I198
sg9
I32
sg10
(dp84
g12
g13
sg14
I2
sssg15
F1.0
sa(dp85
g2
I0
sg3
F0.8163543604590242
sg4
I25
sg5
(dp86
g7
F0.0489588989577903
sg8
I26
sg9
I32
sg10
(dp87
g12
g13
sg14
I1
sssg15
F1.0
sa(dp88
g2
I0
sg3
F0.8792573512367197
sg4
I26
sg5
(dp89
g7
F0.008705963866395352
sg8
I66
sg9
I32
sg10
(dp90
g12
g13
sg14
I1
sssg15
F1.0
sa(dp91
g2
I0
sg3
F1.5773074818803738
sg4
I27
sg5
(dp92
g7
F0.00016956319558102128
sg8
I28
sg9
I64
sg10
(dp93
g12
g13
sg14
I4
sssg15
F1.0
sa(dp94
g2
I0
sg3
F1.6885320126693022
sg4
I28
sg5
(dp95
g7
F0.017730049442735336
sg8
I124
sg9
I32
sg10
(dp96
g12
g13
sg14
I4
sssg15
F1.0
sa(dp97
g2
I0
sg3
F1.9502964552767938
sg4
I29
sg5
(dp98
g7
F1.9371206183314655e-05
sg8
I156
sg9
I64
sg10
(dp99
g12
g13
sg14
I1
sssg15
F1.0
sa(dp100
g2
I0
sg3
F1.1630562165649994
sg4
I30
sg5
(dp101
g7
F0.0007048419473965844
sg8
I98
sg9
I64
sg10
(dp102
g12
g13
sg14
I1
sssg15
F1.0
sa(dp103
g2
I0
sg3
F1.0256533060775668
sg4
I31
sg5
(dp104
g7
F2.108618833969943e-05
sg8
I15
sg9
I32
sg10
(dp105
g12
g13
sg14
I2
sssg15
F1.0
sa(dp106
g2
I0
sg3
F1.8521172931146483
sg4
I32
sg5
(dp107
g7
F0.02035679455127267
sg8
I197
sg9
I32
sg10
(dp108
g12
g13
sg14
I4
sssg15
F1.0
sa(dp109
g2
I0
sg3
F1.150383046356466
sg4
I33
sg5
(dp110
g7
F0.006204592264691996
sg8
I40
sg9
I32
sg10
(dp111
g12
g13
sg14
I3
sssg15
F1.0
sa(dp112
g2
I0
sg3
F4.555426554146117
sg4
I34
sg5
(dp113
g7
F0.00024325631342125416
sg8
I137
sg9
I64
sg10
(dp114
g12
g13
sg14
I3
sssg15
F1.0
sa(dp115
g2
I0
sg3
F0.9049476023641603
sg4
I35
sg5
(dp116
g7
F0.014299507757558273
sg8
I7
sg9
I32
sg10
(dp117
g12
g13
sg14
I3
sssg15
F1.0
sa(dp118
g2
I0
sg3
F0.9849930206128787
sg4
I36
sg5
(dp119
g7
F1.7593015877358262e-06
sg8
I18
sg9
I32
sg10
(dp120
g12
g13
sg14
I1
sssg15
F1.0
sa(dp121
g2
I0
sg3
F1.3783332850963204
sg4
I37
sg5
(dp122
g7
F0.001253098072443585
sg8
I126
sg9
I64
sg10
(dp123
g12
g13
sg14
I2
sssg15
F1.0
sa(dp124
g2
I0
sg3
F4.694002283204776
sg4
I38
sg5
(dp125
g7
F0.00022349807025508005
sg8
I142
sg9
I32
sg10
(dp126
g12
g13
sg14
I4
sssg15
F1.0
sa(dp127
g2
I0
sg3
F4.470516956285243
sg4
I39
sg5
(dp128
g7
F6.301869213046427e-05
sg8
I134
sg9
I32
sg10
(dp129
g12
g13
sg14
I3
sssg15
F1.0
sa(dp130
g2
I0
sg3
F1.2733452069735005
sg4
I40
sg5
(dp131
g7
F0.027631748796539547
sg8
I165
sg9
I32
sg10
(dp132
g12
g13
sg14
I2
sssg15
F1.0
sa(dp133
g2
I0
sg3
F6.094837045677471
sg4
I41
sg5
(dp134
g7
F3.454635839136601e-06
sg8
I141
sg9
I32
sg10
(dp135
g12
g13
sg14
I3
sssg15
F1.0
sa(dp136
g2
I0
sg3
F0.9176676085578707
sg4
I42
sg5
(dp137
g7
F0.001974616570197067
sg8
I134
sg9
I32
sg10
(dp138
g12
g13
sg14
I1
sssg15
F1.0
sa(dp139
g2
I0
sg3
F0.8917846147533173
sg4
I43
sg5
(dp140
g7
F0.009108784686267713
sg8
I37
sg9
I64
sg10
(dp141
g12
g13
sg14
I2
sssg15
F1.0
sa(dp142
g2
I0
sg3
F1.1662539970710948
sg4
I44
sg5
(dp143
g7
F1.3687151802546009e-06
sg8
I19
sg9
I32
sg10
(dp144
g12
g13
sg14
I3
sssg15
F1.0
sa(dp145
g2
I0
sg3
F1.205978947058491
sg4
I45
sg5
(dp146
g7
F0.00010885959495659186
sg8
I55
sg9
I64
sg10
(dp147
g12
g13
sg14
I1
sssg15
F1.0
sa(dp148
g2
I0
sg3
F1.2173809654452337
sg4
I46
sg5
(dp149
g7
F0.010725846227215435
sg8
I60
sg9
I32
sg10
(dp150
g12
g13
sg14
I3
sssg15
F1.0
sa(dp151
g2
I0
sg3
F1.432750521453183
sg4
I47
sg5
(dp152
g7
F0.0014792869397393627
sg8
I191
sg9
I64
sg10
(dp153
g12
g13
sg14
I2
sssg15
F1.0
sa(dp154
g2
I0
sg3
F1.8342380278462895
sg4
I48
sg5
(dp155
g7
F0.00016747932889115972
sg8
I197
sg9
I64
sg10
(dp156
g12
g13
sg14
I1
sssg15
F1.0
sa(dp157
g2
I0
sg3
F1.013140387833219
sg4
I49
sg5
(dp158
g7
F0.0004620504699054275
sg8
I88
sg9
I32
sg10
(dp159
g12
g13
sg14
I1
sssg15
F1.0
sa(dp160
g2
I0
sg3
F8.175469663505595
sg4
I50
sg5
(dp161
g7
F0.00033582383232991903
sg8
I150
sg9
I64
sg10
(dp162
g12
g13
sg14
I4
sssg15
F1.0
sa(dp163
g2
I0
sg3
F0.977938415500266
sg4
I51
sg5
(dp164
g7
F0.0009197941396159614
sg8
I13
sg9
I32
sg10
(dp165
g12
g13
sg14
I4
sssg15
F1.0
sa(dp166
g2
I0
sg3
F1.2915823441979144
sg4
I52
sg5
(dp167
g7
F0.0023130662994849307
sg8
I127
sg9
I32
sg10
(dp168
g12
g13
sg14
I3
sssg15
F1.0
sa(dp169
g2
I0
sg3
F1.208537932519681
sg4
I53
sg5
(dp170
g7
F0.018566478280393442
sg8
I76
sg9
I64
sg10
(dp171
g12
g13
sg14
I3
sssg15
F1.0
sa(dp172
g2
I0
sg3
F2.1767131882286384
sg4
I54
sg5
(dp173
g7
F1.6395373997551222e-05
sg8
I94
sg9
I32
sg10
(dp174
g12
g13
sg14
I2
sssg15
F1.0
sa(dp175
g2
I0
sg3
F1.6579806859549926
sg4
I55
sg5
(dp176
g7
F0.0015823435539368
sg8
I133
sg9
I32
sg10
(dp177
g12
g13
sg14
I4
sssg15
F1.0
sa(dp178
g2
I0
sg3
F0.8369860398055646
sg4
I56
sg5
(dp179
g7
F1.279950743833889e-05
sg8
I5
sg9
I32
sg10
(dp180
g12
g13
sg14
I2
sssg15
F1.0
sa(dp181
g2
I0
sg3
F0.8077951871216623
sg4
I57
sg5
(dp182
g7
F0.007126116179359547
sg8
I21
sg9
I32
sg10
(dp183
g12
g13
sg14
I1
sssg15
F1.0
sa(dp184
g2
I0
sg3
F1.9853062856532588
sg4
I58
sg5
(dp185
g7
F0.00033108746808869686
sg8
I102
sg9
I32
sg10
(dp186
g12
g13
sg14
I3
sssg15
F1.0
sa(dp187
g2
I0
sg3
F1.2818765710713105
sg4
I59
sg5
(dp188
g7
F0.01167787985753524
sg8
I170
sg9
I64
sg10
(dp189
g12
g13
sg14
I3
sssg15
F1.0
sa(dp190
g2
I0
sg3
F0.9768980226306374
sg4
I60
sg5
(dp191
g7
F4.002793663990821e-06
sg8
I8
sg9
I32
sg10
(dp192
g12
g13
sg14
I3
sssg15
F1.0
sa(dp193
g2
I0
sg3
F1.444446226976512
sg4
I61
sg5
(dp194
g7
F0.007626438631201435
sg8
I199
sg9
I32
sg10
(dp195
g12
g13
sg14
I3
sssg15
F1.0
sa(dp196
g2
I0
sg3
F3.757598766837897
sg4
I62
sg5
(dp197
g7
F1.4723836649206566e-05
sg8
I172
sg9
I32
sg10
(dp198
g12
g13
sg14
I2
sssg15
F1.0
sa(dp199
g2
I0
sg3
F2.1722863774320214
sg4
I63
sg5
(dp200
g7
F1.9290251996614854e-06
sg8
I185
sg9
I64
sg10
(dp201
g12
g13
sg14
I1
sssg15
F1.0
sa(dp202
g2
I0
sg3
F4.565030781498427
sg4
I64
sg5
(dp203
g7
F9.328338806591985e-05
sg8
I98
sg9
I32
sg10
(dp204
g12
g13
sg14
I4
sssg15
F1.0
sa(dp205
g2
I0
sg3
F1.1265452423331035
sg4
I65
sg5
(dp206
g7
F9.424452560989004e-05
sg8
I14
sg9
I32
sg10
(dp207
g12
g13
sg14
I4
sssg15
F1.0
sa(dp208
g2
I0
sg3
F0.9206656190737804
sg4
I66
sg5
(dp209
g7
F0.0007547517080500873
sg8
I50
sg9
I32
sg10
(dp210
g12
g13
sg14
I1
sssg15
F1.0
sa(dp211
g2
I0
sg3
F1.2976646336225404
sg4
I67
sg5
(dp212
g7
F0.00011943717874272178
sg8
I49
sg9
I32
sg10
(dp213
g12
g13
sg14
I2
sssg15
F1.0
sa(dp214
g2
I0
sg3
F0.9003993152378263
sg4
I68
sg5
(dp215
g7
F0.002735031955344648
sg8
I83
sg9
I32
sg10
(dp216
g12
g13
sg14
I1
sssg15
F1.0
sa(dp217
g2
I0
sg3
F1.565773169508433
sg4
I69
sg5
(dp218
g7
F0.027502499091861254
sg8
I188
sg9
I32
sg10
(dp219
g12
g13
sg14
I3
sssg15
F1.0
sa(dp220
g2
I0
sg3
F1.509798344666938
sg4
I70
sg5
(dp221
g7
F0.020538844056406626
sg8
I95
sg9
I64
sg10
(dp222
g12
g13
sg14
I4
sssg15
F1.0
sa(dp223
g2
I0
sg3
F0.9933294317646453
sg4
I71
sg5
(dp224
g7
F1.3870688615725414e-06
sg8
I13
sg9
I64
sg10
(dp225
g12
g13
sg14
I3
sssg15
F1.0
sa(dp226
g2
I0
sg3
F0.7797919197705432
sg4
I72
sg5
(dp227
g7
F5.439644399539714e-06
sg8
I10
sg9
I64
sg10
(dp228
g12
g13
sg14
I1
sssg15
F1.0
sa(dp229
g2
I0
sg3
F0.9457917440820363
sg4
I73
sg5
(dp230
g7
F0.00718674081272809
sg8
I187
sg9
I32
sg10
(dp231
g12
g13
sg14
I1
sssg15
F1.0
sa(dp232
g2
I0
sg3
F2.0525850207295924
sg4
I74
sg5
(dp233
g7
F1.0799531665852875e-06
sg8
I78
sg9
I64
sg10
(dp234
g12
g13
sg14
I2
sssg15
F1.0
sa(dp235
g2
I0
sg3
F0.9606421151860229
sg4
I75
sg5
(dp236
g7
F0.0012332778169881682
sg8
I63
sg9
I32
sg10
(dp237
g12
g13
sg14
I2
sssg15
F1.0
sa(dp238
g2
I0
sg3
F4.498390914339914
sg4
I76
sg5
(dp239
g7
F0.0002439119858396953
sg8
I133
sg9
I64
sg10
(dp240
g12
g13
sg14
I3
sssg15
F1.0
sa(dp241
g2
I0
sg3
F1.1462233181560053
sg4
I77
sg5
(dp242
g7
F0.015496264596475696
sg8
I137
sg9
I32
sg10
(dp243
g12
g13
sg14
I2
sssg15
F1.0
sa(dp244
g2
I0
sg3
F3.8406463428811137
sg4
I78
sg5
(dp245
g7
F1.2412729885853475e-05
sg8
I164
sg9
I64
sg10
(dp246
g12
g13
sg14
I2
sssg15
F1.0
sa(dp247
g2
I0
sg3
F3.3382923241668694
sg4
I79
sg5
(dp248
g7
F0.0006485768965225349
sg8
I154
sg9
I64
sg10
(dp249
g12
g13
sg14
I3
sssg15
F1.0
sa(dp250
g2
I0
sg3
F1.2423975516609058
sg4
I80
sg5
(dp251
g7
F1.1064539032034317e-05
sg8
I56
sg9
I64
sg10
(dp252
g12
g13
sg14
I1
sssg15
F1.0
sa(dp253
g2
I0
sg3
F1.513883918169979
sg4
I81
sg5
(dp254
g7
F0.027571819638475506
sg8
I173
sg9
I32
sg10
(dp255
g12
g13
sg14
I3
sssg15
F1.0
sa(dp256
g2
I1
sg3
F0.9444334347898881
sg4
I82
sg5
g26
sg15
F3.0
sa(dp257
g2
I0
sg3
F0.9854392631142131
sg4
I83
sg5
g227
sg15
F3.0
sa(dp258
g2
I1
sg3
F1.027731536578703
sg4
I84
sg5
g182
sg15
F3.0
sa(dp259
g2
I0
sg3
F1.076158480849785
sg4
I85
sg5
g86
sg15
F3.0
sa(dp260
g2
I1
sg3
F0.9934778041978783
sg4
I86
sg5
g179
sg15
F3.0
sa(dp261
g2
I0
sg3
F0.9597974458047576
sg4
I87
sg5
g80
sg15
F3.0
sa(dp262
g2
I0
sg3
F1.1862578488812956
sg4
I88
sg5
g59
sg15
F3.0
sa(dp263
g2
I1
sg3
F1.2924965417740297
sg4
I89
sg5
g89
sg15
F3.0
sa(dp264
g2
I0
sg3
F1.4243843019912172
sg4
I90
sg5
g6
sg15
F3.0
sa(dp265
g2
I0
sg3
F1.22779932095377
sg4
I91
sg5
g140
sg15
F3.0
sa(dp266
g2
I1
sg3
F1.096384269896829
sg4
I92
sg5
g215
sg15
F3.0
sa(dp267
g2
I1
sg3
F1.3603220245834138
sg4
I93
sg5
g116
sg15
F3.0
sa(dp268
g2
I1
sg3
F1.1355333045473794
sg4
I94
sg5
g137
sg15
F3.0
sa(dp269
g2
I1
sg3
F1.0024131636761298
sg4
I95
sg5
g209
sg15
F3.0
sa(dp270
g2
I1
sg3
F1.018751822773607
sg4
I96
sg5
g71
sg15
F3.0
sa(dp271
g2
I1
sg3
F1.5020730618963969
sg4
I97
sg5
g230
sg15
F3.0
sa(dp272
g2
I0
sg3
F1.0539360976067975
sg4
I98
sg5
g29
sg15
F3.0
sa(dp273
g2
I1
sg3
F1.1615987740760088
sg4
I99
sg5
g236
sg15
F3.0
sa(dp274
g2
I1
sg3
F1.1153776239494313
sg4
I100
sg5
g191
sg15
F3.0
sa(dp275
g2
I1
sg3
F1.2596165359160068
sg4
I101
sg5
g164
sg15
F3.0
sa(dp276
g2
I0
sg3
F1.2349201626975128
sg4
I102
sg5
g23
sg15
F3.0
sa(dp277
g2
I0
sg3
F1.0978249201441719
sg4
I103
sg5
g119
sg15
F3.0
sa(dp278
g2
I0
sg3
F1.1706861628413179
sg4
I104
sg5
g224
sg15
F3.0
sa(dp279
g2
I0
sg3
F1.0162581978794676
sg4
I105
sg5
g158
sg15
F3.0
sa(dp280
g2
I1
sg3
F1.108341658705967
sg4
I106
sg5
g104
sg15
F3.0
sa(dp281
g2
I1
sg3
F1.079032910863828
sg4
I107
sg5
g206
sg15
F3.0
sa(dp282
g2
I1
sg3
F1.5949448682700988
sg4
I108
sg5
g242
sg15
F3.0
sa(dp283
g2
I2
sg3
F1.1196405047560885
sg4
I109
sg5
g26
sg15
F9.0
sa(dp284
g2
I1
sg3
F1.7145028562067026
sg4
I110
sg5
g80
sg15
F9.0
sa(dp285
g2
I1
sg3
F1.1854528098652164
sg4
I111
sg5
g227
sg15
F9.0
sa(dp286
g2
I2
sg3
F1.1339741857915493
sg4
I112
sg5
g179
sg15
F9.0
sa(dp287
g2
I1
sg3
F1.3211469886900307
sg4
I113
sg5
g209
sg15
F9.0
sa(dp288
g2
I1
sg3
F1.3541061131009673
sg4
I114
sg5
g158
sg15
F9.0
sa(dp289
g2
I1
sg3
F1.7051893150388049
sg4
I115
sg5
g71
sg15
F9.0
sa(dp290
g2
I1
sg3
F1.4579717861905874
sg4
I116
sg5
g182
sg15
F9.0
sa(dp291
g2
I1
sg3
F1.1507581093980663
sg4
I117
sg5
g29
sg15
F9.0
sa(dp292
g2
I7
sg3
F1.8006788006385852
sg4
I118
sg5
g26
sg15
F27.0
sa(dp293
g2
I5
sg3
F1.2126136785395036
sg4
I119
sg5
g179
sg15
F27.0
sa(dp294
g2
I3
sg3
F1.2917925035678335
sg4
I120
sg5
g29
sg15
F27.0
sa(dp295
g2
I1
sg3
F2.0085318199434887
sg4
I121
sg5
(dp296
g7
F0.02905316828959216
sg8
I117
sg9
I32
sg10
(dp297
g12
g13
sg14
I4
sssg15
F3.0
sa(dp298
g2
I0
sg3
F1.142483832473577
sg4
I122
sg5
(dp299
g7
F3.820048834626869e-06
sg8
I29
sg9
I64
sg10
(dp300
g12
g13
sg14
I1
sssg15
F3.0
sa(dp301
g2
I0
sg3
F1.9299641604651296
sg4
I123
sg5
(dp302
g7
F0.0048238599439886665
sg8
I71
sg9
I64
sg10
(dp303
g12
g13
sg14
I4
sssg15
F3.0
sa(dp304
g2
I0
sg3
F1.5703454356577846
sg4
I124
sg5
(dp305
g7
F0.0009825007475323094
sg8
I76
sg9
I64
sg10
(dp306
g12
g13
sg14
I4
sssg15
F3.0
sa(dp307
g2
I1
sg3
F1.1306195540508708
sg4
I125
sg5
(dp308
g7
F3.274833475360869e-05
sg8
I12
sg9
I32
sg10
(dp309
g12
g13
sg14
I4
sssg15
F3.0
sa(dp310
g2
I1
sg3
F3.268797395830606
sg4
I126
sg5
(dp311
g7
F6.982614939036967e-06
sg8
I92
sg9
I32
sg10
(dp312
g12
g13
sg14
I3
sssg15
F3.0
sa(dp313
g2
I0
sg3
F1.1346441210907767
sg4
I127
sg5
(dp314
g7
F8.269438483413151e-06
sg8
I17
sg9
I64
sg10
(dp315
g12
g13
sg14
I2
sssg15
F3.0
sa(dp316
g2
I0
sg3
F1.8806244704911874
sg4
I128
sg5
(dp317
g7
F0.00143441892393243
sg8
I105
sg9
I64
sg10
(dp318
g12
g13
sg14
I4
sssg15
F3.0
sa(dp319
g2
I1
sg3
F2.093093903819028
sg4
I129
sg5
(dp320
g7
F0.00022789040362282447
sg8
I176
sg9
I32
sg10
(dp321
g12
g13
sg14
I4
sssg15
F3.0
sa(dp322
g2
I0
sg3
F12.162400687880563
sg4
I130
sg5
(dp323
g7
F1.608823117956019e-05
sg8
I196
sg9
I64
sg10
(dp324
g12
g13
sg14
I4
sssg15
F3.0
sa(dp325
g2
I0
sg3
F1.0400138871369622
sg4
I131
sg5
(dp326
g7
F0.002872195166729553
sg8
I71
sg9
I64
sg10
(dp327
g12
g13
sg14
I1
sssg15
F3.0
sa(dp328
g2
I1
sg3
F1.923758444127567
sg4
I132
sg5
(dp329
g7
F1.7972324461764868e-06
sg8
I35
sg9
I32
sg10
(dp330
g12
g13
sg14
I4
sssg15
F3.0
sa(dp331
g2
I0
sg3
F1.4175187108441656
sg4
I133
sg5
(dp332
g7
F0.006137781219857669
sg8
I92
sg9
I64
sg10
(dp333
g12
g13
sg14
I2
sssg15
F3.0
sa(dp334
g2
I0
sg3
F1.6563972994243807
sg4
I134
sg5
(dp335
g7
F0.02598175946944302
sg8
I62
sg9
I64
sg10
(dp336
g12
g13
sg14
I3
sssg15
F3.0
sa(dp337
g2
I0
sg3
F1.0247919418105838
sg4
I135
sg5
(dp338
g7
F0.00013625217699446396
sg8
I37
sg9
I32
sg10
(dp339
g12
g13
sg14
I1
sssg15
F3.0
sa(dp340
g2
I1
sg3
F1.40296302612747
sg4
I136
sg5
(dp341
g7
F0.046803503339989956
sg8
I198
sg9
I32
sg10
(dp342
g12
g13
sg14
I2
sssg15
F3.0
sa(dp343
g2
I0
sg3
F0.9754618612332409
sg4
I137
sg5
(dp344
g7
F2.691533589409562e-06
sg8
I7
sg9
I64
sg10
(dp345
g12
g13
sg14
I1
sssg15
F3.0
sa(dp346
g2
I1
sg3
F1.220157985767912
sg4
I138
sg5
(dp347
g7
F0.0002535497893453732
sg8
I186
sg9
I32
sg10
(dp348
g12
g13
sg14
I2
sssg15
F3.0
sa(dp349
g2
I1
sg3
F1.44155771349075
sg4
I139
sg5
(dp350
g7
F1.443678199441376e-05
sg8
I127
sg9
I32
sg10
(dp351
g12
g13
sg14
I1
sssg15
F3.0
sa(dp352
g2
I1
sg3
F1.5830760024766453
sg4
I140
sg5
(dp353
g7
F0.004890568445287356
sg8
I63
sg9
I32
sg10
(dp354
g12
g13
sg14
I3
sssg15
F3.0
sa(dp355
g2
I1
sg3
F8.267369742818689
sg4
I141
sg5
(dp356
g7
F1.43384070540415e-06
sg8
I124
sg9
I32
sg10
(dp357
g12
g13
sg14
I4
sssg15
F3.0
sa(dp358
g2
I0
sg3
F1.1918210931997353
sg4
I142
sg5
(dp359
g7
F0.033378845375264934
sg8
I71
sg9
I64
sg10
(dp360
g12
g13
sg14
I1
sssg15
F3.0
sa(dp361
g2
I1
sg3
F1.0058616209180424
sg4
I143
sg5
(dp362
g7
F0.04564882437651344
sg8
I21
sg9
I32
sg10
(dp363
g12
g13
sg14
I1
sssg15
F3.0
sa(dp364
g2
I0
sg3
F1.060110792293274
sg4
I144
sg5
(dp365
g7
F0.00043766989473964675
sg8
I115
sg9
I64
sg10
(dp366
g12
g13
sg14
I1
sssg15
F3.0
sa(dp367
g2
I1
sg3
F1.5398748583076334
sg4
I145
sg5
(dp368
g7
F0.023452307651843533
sg8
I84
sg9
I32
sg10
(dp369
g12
g13
sg14
I2
sssg15
F3.0
sa(dp370
g2
I0
sg3
F1.3558328827146013
sg4
I146
sg5
(dp371
g7
F0.0287390212201862
sg8
I61
sg9
I64
sg10
(dp372
g12
g13
sg14
I2
sssg15
F3.0
sa(dp373
g2
I1
sg3
F1.209650245741918
sg4
I147
sg5
(dp374
g7
F0.0014982389463120815
sg8
I18
sg9
I32
sg10
(dp375
g12
g13
sg14
I3
sssg15
F3.0
sa(dp376
g2
I1
sg3
F1.131558489499551
sg4
I148
sg5
g344
sg15
F9.0
sa(dp377
g2
I2
sg3
F1.2382130447214839
sg4
I149
sg5
g362
sg15
F9.0
sa(dp378
g2
I1
sg3
F1.0759775331953363
sg4
I150
sg5
g338
sg15
F9.0
sa(dp379
g2
I1
sg3
F1.5783295724191653
sg4
I151
sg5
g326
sg15
F9.0
sa(dp380
g2
I1
sg3
F1.2836492154789123
sg4
I152
sg5
g365
sg15
F9.0
sa(dp381
g2
I2
sg3
F1.1808070757738487
sg4
I153
sg5
g308
sg15
F9.0
sa(dp382
g2
I1
sg3
F1.284657581333722
sg4
I154
sg5
g314
sg15
F9.0
sa(dp383
g2
I1
sg3
F1.2857297318699632
sg4
I155
sg5
g299
sg15
F9.0
sa(dp384
g2
I1
sg3
F1.4296728794124582
sg4
I156
sg5
g359
sg15
F9.0
sa(dp385
g2
I4
sg3
F1.7389451282532322
sg4
I157
sg5
g338
sg15
F27.0
sa(dp386
g2
I3
sg3
F1.278485758814689
sg4
I158
sg5
g344
sg15
F27.0
sa(dp387
g2
I7
sg3
F1.5889611808556903
sg4
I159
sg5
g308
sg15
F27.0
sa(dp388
g2
I1
sg3
F3.980189764710346
sg4
I160
sg5
(dp389
g7
F4.3285523758020586e-05
sg8
I180
sg9
I64
sg10
(dp390
g12
g13
sg14
I4
sssg15
F9.0
sa(dp391
g2
I1
sg3
F2.5189758331037764
sg4
I161
sg5
(dp392
g7
F3.21422018624772e-06
sg8
I112
sg9
I64
sg10
(dp393
g12
g13
sg14
I2
sssg15
F9.0
sa(dp394
g2
I2
sg3
F1.9612085965722421
sg4
I162
sg5
(dp395
g7
F1.6439563186427506e-05
sg8
I149
sg9
I32
sg10
(dp396
g12
g13
sg14
I3
sssg15
F9.0
sa(dp397
g2
I1
sg3
F2.245648251000526
sg4
I163
sg5
(dp398
g7
F0.004959095933720593
sg8
I52
sg9
I64
sg10
(dp399
g12
g13
sg14
I3
sssg15
F9.0
sa(dp400
g2
I1
sg3
F2.4425454460104405
sg4
I164
sg5
(dp401
g7
F0.00012635957488379832
sg8
I172
sg9
I64
sg10
(dp402
g12
g13
sg14
I4
sssg15
F9.0
sa(dp403
g2
I1
sg3
F1.395069131133868
sg4
I165
sg5
(dp404
g7
F0.00028075742905779
sg8
I59
sg9
I64
sg10
(dp405
g12
g13
sg14
I2
sssg15
F9.0
sa(dp406
g2
I1
sg3
F2.5828355066069584
sg4
I166
sg5
(dp407
g7
F0.000568612367875701
sg8
I124
sg9
I64
sg10
(dp408
g12
g13
sg14
I4
sssg15
F9.0
sa(dp409
g2
I2
sg3
F1.3692358895231562
sg4
I167
sg5
(dp410
g7
F0.00018192897990848471
sg8
I69
sg9
I32
sg10
(dp411
g12
g13
sg14
I2
sssg15
F9.0
sa(dp412
g2
I1
sg3
F1.4529574513651977
sg4
I168
sg5
(dp413
g7
F0.017154145687144105
sg8
I127
sg9
I32
sg10
(dp414
g12
g13
sg14
I1
sssg15
F9.0
sa(dp415
g2
I5
sg3
F2.4784685952377665
sg4
I169
sg5
g410
sg15
F27.0
sa(dp416
g2
I3
sg3
F2.174186101271572
sg4
I170
sg5
g404
sg15
F27.0
sa(dp417
g2
I5
sg3
F1.5022298554896416
sg4
I171
sg5
g413
sg15
F27.0
sa(dp418
g2
I5
sg3
F3.3146640483365495
sg4
I172
sg5
(dp419
g7
F0.001285463793181207
sg8
I115
sg9
I64
sg10
(dp420
g12
g13
sg14
I4
sssg15
F27.0
sa(dp421
g2
I7
sg3
F2.464693933521585
sg4
I173
sg5
(dp422
g7
F1.541825193664114e-05
sg8
I149
sg9
I32
sg10
(dp423
g12
g13
sg14
I4
sssg15
F27.0
sa(dp424
g2
I6
sg3
F2.856962594199877
sg4
I174
sg5
(dp425
g7
F0.0004370463464280292
sg8
I58
sg9
I32
sg10
(dp426
g12
g13
sg14
I3
sssg15
F27.0
sa(dp427
g2
I5
sg3
F2.669104079310754
sg4
I175
sg5
(dp428
g7
F0.00030555914138372087
sg8
I96
sg9
I32
sg10
(dp429
g12
g13
sg14
I2
sssg15
F27.0
sa(dp430
g2
I3
sg3
F2.240072393670379
sg4
I176
sg5
(dp431
g7
F0.0010189117695191328
sg8
I29
sg9
I64
sg10
(dp432
g12
g13
sg14
I2
sssg15
F27.0
sa(dp433
g2
I3
sg3
F3.2021740643150722
sg4
I177
sg5
(dp434
g7
F0.000428870743278161
sg8
I61
sg9
I64
sg10
(dp435
g12
g13
sg14
I4
sssg15
F27.0
sa.